target datalayout = "e-m:e-p270:32:32-p271:32:32-p272:64:64-i64:64-i128:128-f80:128-n8:16:32:64-S128"
target triple = "x86_64-pc-linux-gnu"

%struct.pdf_struct = type { ptr, i32, i32, i32, i32, i32, ptr, i64, ptr, i64, i64, i64, ptr, ptr, i32, i32, ptr, i32, ptr, i32, %struct.pdf_stats, ptr, i32, i32 }
%struct.pdf_stats = type { i32, i32, i32, i32, i32, i32, i32, i32, i32, i32, i32, i32, i32, i32, i32, i32, i32, i32, i32, i32, i32, i32, i32, i32, i32, ptr, ptr, ptr, ptr, ptr, ptr, ptr, ptr }
%struct.pdf_obj = type { i32, i64, i32, i32, i32, i32, [64 x i32], ptr, i64, ptr, ptr, i8 }

@.str.80 = private unnamed_addr constant [8 x i8] c"/Length\00", align 1
@.str.203 = private unnamed_addr constant [53 x i8] c"find_length: failed to parse object length or objid\0A\00", align 1
@.str.204 = private unnamed_addr constant [73 x i8] c"find_length: Encountered invalid negative object length or objid (%ld).\0A\00", align 1
@.str.205 = private unnamed_addr constant [43 x i8] c"find_length: failed to parse object genid\0A\00", align 1
@.str.206 = private unnamed_addr constant [63 x i8] c"find_length: Encountered invalid negative object genid (%ld).\0A\00", align 1
@.str.207 = private unnamed_addr constant [51 x i8] c"find_length: length is in indirect object %lu %lu\0A\00", align 1
@.str.208 = private unnamed_addr constant [40 x i8] c"find_length: indirect object not found\0A\00", align 1
@.str.209 = private unnamed_addr constant [36 x i8] c"find_length: next object not found\0A\00", align 1
@.str.210 = private unnamed_addr constant [65 x i8] c"find_length: failed to parse object length from indirect object\0A\00", align 1
@.str.211 = private unnamed_addr constant [61 x i8] c"find_length: Encountered invalid negative obj length (%ld).\0A\00", align 1

; Function Attrs: nounwind uwtable
define internal i64 @find_length(ptr noundef %0, ptr noundef %1, ptr noundef %2, i64 noundef %3) #0 {
  %5 = alloca i64, align 8
  %6 = alloca ptr, align 8
  %7 = alloca ptr, align 8
  %8 = alloca ptr, align 8
  %9 = alloca i64, align 8
  %10 = alloca i64, align 8
  %11 = alloca ptr, align 8
  %12 = alloca i64, align 8
  %13 = alloca i64, align 8
  %14 = alloca ptr, align 8
  %15 = alloca i64, align 8
  %16 = alloca i64, align 8
  %17 = alloca ptr, align 8
  store ptr %0, ptr %6, align 8
  store ptr %1, ptr %7, align 8
  store ptr %2, ptr %8, align 8
  store i64 %3, ptr %9, align 8
  store i64 0, ptr %10, align 8
  %18 = load ptr, ptr %8, align 8
  store ptr %18, ptr %11, align 8
  %19 = load i64, ptr %9, align 8
  store i64 %19, ptr %12, align 8
  store i64 0, ptr %13, align 8
  %20 = load i64, ptr %12, align 8
  %21 = icmp ult i64 %20, 8
  br i1 %21, label %22, label %23

22:                                               ; preds = %4
  store i64 0, ptr %5, align 8
  br label %269

23:                                               ; preds = %4
  %24 = load ptr, ptr %11, align 8
  %25 = load i64, ptr %12, align 8
  %26 = call ptr @cli_memstr(ptr noundef %24, i64 noundef %25, ptr noundef @.str.80, i64 noundef 7)
  store ptr %26, ptr %14, align 8
  %27 = load ptr, ptr %14, align 8
  %28 = icmp ne ptr %27, null
  br i1 %28, label %30, label %29

29:                                               ; preds = %23
  store i64 0, ptr %5, align 8
  br label %269

30:                                               ; preds = %23
  %31 = load ptr, ptr %14, align 8
  %32 = load ptr, ptr %11, align 8
  %33 = ptrtoint ptr %31 to i64
  %34 = ptrtoint ptr %32 to i64
  %35 = sub i64 %33, %34
  %36 = load i64, ptr %12, align 8
  %37 = sub i64 %36, %35
  store i64 %37, ptr %12, align 8
  %38 = load i64, ptr %12, align 8
  %39 = icmp ult i64 %38, 1
  br i1 %39, label %40, label %41

40:                                               ; preds = %30
  store i64 0, ptr %5, align 8
  br label %269

41:                                               ; preds = %30
  %42 = load ptr, ptr %14, align 8
  %43 = getelementptr inbounds i8, ptr %42, i32 1
  store ptr %43, ptr %14, align 8
  %44 = load i64, ptr %12, align 8
  %45 = add i64 %44, -1
  store i64 %45, ptr %12, align 8
  %46 = load ptr, ptr %14, align 8
  %47 = load i64, ptr %12, align 8
  %48 = call ptr @pdf_nextobject(ptr noundef %46, i64 noundef %47)
  store ptr %48, ptr %11, align 8
  %49 = load ptr, ptr %11, align 8
  %50 = icmp ne ptr %49, null
  br i1 %50, label %52, label %51

51:                                               ; preds = %41
  store i64 0, ptr %5, align 8
  br label %269

52:                                               ; preds = %41
  %53 = load i64, ptr %12, align 8
  %54 = load ptr, ptr %11, align 8
  %55 = load ptr, ptr %14, align 8
  %56 = ptrtoint ptr %54 to i64
  %57 = ptrtoint ptr %55 to i64
  %58 = sub i64 %56, %57
  %59 = icmp ult i64 %53, %58
  br i1 %59, label %60, label %61

60:                                               ; preds = %52
  store i64 0, ptr %5, align 8
  br label %269

61:                                               ; preds = %52
  %62 = load ptr, ptr %11, align 8
  %63 = load ptr, ptr %14, align 8
  %64 = ptrtoint ptr %62 to i64
  %65 = ptrtoint ptr %63 to i64
  %66 = sub i64 %64, %65
  %67 = load i64, ptr %12, align 8
  %68 = sub i64 %67, %66
  store i64 %68, ptr %12, align 8
  %69 = load ptr, ptr %11, align 8
  store ptr %69, ptr %14, align 8
  %70 = load ptr, ptr %14, align 8
  %71 = load i64, ptr %12, align 8
  %72 = call i32 @cli_strntol_wrap(ptr noundef %70, i64 noundef %71, i32 noundef 0, i32 noundef 10, ptr noundef %13)
  %73 = icmp ne i32 0, %72
  br i1 %73, label %74, label %75

74:                                               ; preds = %61
  call void (ptr, ...) @cli_dbgmsg(ptr noundef @.str.203)
  store i64 0, ptr %5, align 8
  br label %269

75:                                               ; preds = %61
  %76 = load i64, ptr %13, align 8
  %77 = icmp slt i64 %76, 0
  br i1 %77, label %78, label %80

78:                                               ; preds = %75
  %79 = load i64, ptr %13, align 8
  call void (ptr, ...) @cli_dbgmsg(ptr noundef @.str.204, i64 noundef %79)
  store i64 0, ptr %5, align 8
  br label %269

80:                                               ; preds = %75
  br label %81

81:                                               ; preds = %80
  %82 = load i64, ptr %13, align 8
  store i64 %82, ptr %10, align 8
  br label %83

83:                                               ; preds = %100, %81
  %84 = load i64, ptr %12, align 8
  %85 = icmp ugt i64 %84, 0
  br i1 %85, label %86, label %98

86:                                               ; preds = %83
  %87 = call ptr @__ctype_b_loc() #10
  %88 = load ptr, ptr %87, align 8
  %89 = load ptr, ptr %14, align 8
  %90 = load i8, ptr %89, align 1
  %91 = sext i8 %90 to i32
  %92 = sext i32 %91 to i64
  %93 = getelementptr inbounds i16, ptr %88, i64 %92
  %94 = load i16, ptr %93, align 2
  %95 = zext i16 %94 to i32
  %96 = and i32 %95, 2048
  %97 = icmp ne i32 %96, 0
  br label %98

98:                                               ; preds = %86, %83
  %99 = phi i1 [ false, %83 ], [ %97, %86 ]
  br i1 %99, label %100, label %105

100:                                              ; preds = %98
  %101 = load ptr, ptr %14, align 8
  %102 = getelementptr inbounds i8, ptr %101, i32 1
  store ptr %102, ptr %14, align 8
  %103 = load i64, ptr %12, align 8
  %104 = add i64 %103, -1
  store i64 %104, ptr %12, align 8
  br label %83

105:                                              ; preds = %98
  %106 = load i64, ptr %12, align 8
  %107 = icmp ugt i64 %106, 0
  br i1 %107, label %108, label %239

108:                                              ; preds = %105
  %109 = load ptr, ptr %14, align 8
  %110 = load i8, ptr %109, align 1
  %111 = sext i8 %110 to i32
  %112 = icmp eq i32 %111, 32
  br i1 %112, label %113, label %239

113:                                              ; preds = %108
  %114 = load ptr, ptr %14, align 8
  %115 = getelementptr inbounds i8, ptr %114, i32 1
  store ptr %115, ptr %14, align 8
  %116 = load i64, ptr %12, align 8
  %117 = add i64 %116, -1
  store i64 %117, ptr %12, align 8
  %118 = load ptr, ptr %14, align 8
  %119 = load i64, ptr %12, align 8
  %120 = call i32 @cli_strntol_wrap(ptr noundef %118, i64 noundef %119, i32 noundef 0, i32 noundef 10, ptr noundef %13)
  %121 = icmp ne i32 0, %120
  br i1 %121, label %122, label %123

122:                                              ; preds = %113
  call void (ptr, ...) @cli_dbgmsg(ptr noundef @.str.205)
  store i64 0, ptr %5, align 8
  br label %269

123:                                              ; preds = %113
  %124 = load i64, ptr %13, align 8
  %125 = icmp slt i64 %124, 0
  br i1 %125, label %126, label %128

126:                                              ; preds = %123
  %127 = load i64, ptr %13, align 8
  call void (ptr, ...) @cli_dbgmsg(ptr noundef @.str.206, i64 noundef %127)
  store i64 0, ptr %5, align 8
  br label %269

128:                                              ; preds = %123
  br label %129

129:                                              ; preds = %128
  %130 = load i64, ptr %13, align 8
  store i64 %130, ptr %15, align 8
  br label %131

131:                                              ; preds = %148, %129
  %132 = load i64, ptr %12, align 8
  %133 = icmp ugt i64 %132, 0
  br i1 %133, label %134, label %146

134:                                              ; preds = %131
  %135 = call ptr @__ctype_b_loc() #10
  %136 = load ptr, ptr %135, align 8
  %137 = load ptr, ptr %14, align 8
  %138 = load i8, ptr %137, align 1
  %139 = sext i8 %138 to i32
  %140 = sext i32 %139 to i64
  %141 = getelementptr inbounds i16, ptr %136, i64 %140
  %142 = load i16, ptr %141, align 2
  %143 = zext i16 %142 to i32
  %144 = and i32 %143, 2048
  %145 = icmp ne i32 %144, 0
  br label %146

146:                                              ; preds = %134, %131
  %147 = phi i1 [ false, %131 ], [ %145, %134 ]
  br i1 %147, label %148, label %153

148:                                              ; preds = %146
  %149 = load ptr, ptr %14, align 8
  %150 = getelementptr inbounds i8, ptr %149, i32 1
  store ptr %150, ptr %14, align 8
  %151 = load i64, ptr %12, align 8
  %152 = add i64 %151, -1
  store i64 %152, ptr %12, align 8
  br label %131

153:                                              ; preds = %146
  %154 = load i64, ptr %12, align 8
  %155 = icmp ult i64 %154, 2
  br i1 %155, label %156, label %157

156:                                              ; preds = %153
  store i64 0, ptr %5, align 8
  br label %269

157:                                              ; preds = %153
  %158 = load ptr, ptr %14, align 8
  %159 = getelementptr inbounds i8, ptr %158, i64 0
  %160 = load i8, ptr %159, align 1
  %161 = sext i8 %160 to i32
  %162 = icmp eq i32 %161, 32
  br i1 %162, label %163, label %238

163:                                              ; preds = %157
  %164 = load ptr, ptr %14, align 8
  %165 = getelementptr inbounds i8, ptr %164, i64 1
  %166 = load i8, ptr %165, align 1
  %167 = sext i8 %166 to i32
  %168 = icmp eq i32 %167, 82
  br i1 %168, label %169, label %238

169:                                              ; preds = %163
  %170 = load i64, ptr %10, align 8
  store i64 %170, ptr %16, align 8
  store ptr null, ptr %17, align 8
  %171 = load i64, ptr %16, align 8
  %172 = load i64, ptr %15, align 8
  call void (ptr, ...) @cli_dbgmsg(ptr noundef @.str.207, i64 noundef %171, i64 noundef %172)
  %173 = load ptr, ptr %6, align 8
  %174 = load ptr, ptr %7, align 8
  %175 = load i64, ptr %10, align 8
  %176 = shl i64 %175, 8
  %177 = load i64, ptr %15, align 8
  %178 = and i64 %177, 255
  %179 = or i64 %176, %178
  %180 = trunc i64 %179 to i32
  %181 = call ptr @find_obj(ptr noundef %173, ptr noundef %174, i32 noundef %180)
  store ptr %181, ptr %7, align 8
  %182 = load ptr, ptr %7, align 8
  %183 = icmp ne ptr %182, null
  br i1 %183, label %185, label %184

184:                                              ; preds = %169
  call void (ptr, ...) @cli_dbgmsg(ptr noundef @.str.208)
  store i64 0, ptr %5, align 8
  br label %269

185:                                              ; preds = %169
  %186 = load ptr, ptr %6, align 8
  %187 = getelementptr inbounds %struct.pdf_struct, ptr %186, i32 0, i32 8
  %188 = load ptr, ptr %187, align 8
  %189 = load ptr, ptr %7, align 8
  %190 = getelementptr inbounds %struct.pdf_obj, ptr %189, i32 0, i32 0
  %191 = load i32, ptr %190, align 8
  %192 = zext i32 %191 to i64
  %193 = getelementptr inbounds i8, ptr %188, i64 %192
  store ptr %193, ptr %17, align 8
  %194 = load ptr, ptr %6, align 8
  %195 = getelementptr inbounds %struct.pdf_struct, ptr %194, i32 0, i32 9
  %196 = load i64, ptr %195, align 8
  %197 = load ptr, ptr %7, align 8
  %198 = getelementptr inbounds %struct.pdf_obj, ptr %197, i32 0, i32 0
  %199 = load i32, ptr %198, align 8
  %200 = zext i32 %199 to i64
  %201 = sub i64 %196, %200
  store i64 %201, ptr %12, align 8
  %202 = load ptr, ptr %17, align 8
  %203 = load i64, ptr %12, align 8
  %204 = call ptr @pdf_nextobject(ptr noundef %202, i64 noundef %203)
  store ptr %204, ptr %14, align 8
  %205 = load ptr, ptr %14, align 8
  %206 = icmp ne ptr %205, null
  br i1 %206, label %208, label %207

207:                                              ; preds = %185
  call void (ptr, ...) @cli_dbgmsg(ptr noundef @.str.209)
  store i64 0, ptr %5, align 8
  br label %269

208:                                              ; preds = %185
  %209 = load i64, ptr %12, align 8
  %210 = load ptr, ptr %14, align 8
  %211 = load ptr, ptr %17, align 8
  %212 = ptrtoint ptr %210 to i64
  %213 = ptrtoint ptr %211 to i64
  %214 = sub i64 %212, %213
  %215 = icmp ult i64 %209, %214
  br i1 %215, label %216, label %217

216:                                              ; preds = %208
  store i64 0, ptr %5, align 8
  br label %269

217:                                              ; preds = %208
  %218 = load ptr, ptr %14, align 8
  %219 = load ptr, ptr %17, align 8
  %220 = ptrtoint ptr %218 to i64
  %221 = ptrtoint ptr %219 to i64
  %222 = sub i64 %220, %221
  %223 = load i64, ptr %12, align 8
  %224 = sub i64 %223, %222
  store i64 %224, ptr %12, align 8
  %225 = load ptr, ptr %14, align 8
  %226 = load i64, ptr %12, align 8
  %227 = call i32 @cli_strntol_wrap(ptr noundef %225, i64 noundef %226, i32 noundef 0, i32 noundef 10, ptr noundef %13)
  %228 = icmp ne i32 0, %227
  br i1 %228, label %229, label %230

229:                                              ; preds = %217
  call void (ptr, ...) @cli_dbgmsg(ptr noundef @.str.210)
  store i64 0, ptr %5, align 8
  br label %269

230:                                              ; preds = %217
  %231 = load i64, ptr %13, align 8
  %232 = icmp slt i64 %231, 0
  br i1 %232, label %233, label %235

233:                                              ; preds = %230
  %234 = load i64, ptr %13, align 8
  call void (ptr, ...) @cli_dbgmsg(ptr noundef @.str.211, i64 noundef %234)
  store i64 0, ptr %5, align 8
  br label %269

235:                                              ; preds = %230
  br label %236

236:                                              ; preds = %235
  %237 = load i64, ptr %13, align 8
  store i64 %237, ptr %10, align 8
  br label %238

238:                                              ; preds = %236, %163, %157
  br label %239

239:                                              ; preds = %238, %108, %105
  %240 = load ptr, ptr %11, align 8
  %241 = load ptr, ptr %6, align 8
  %242 = getelementptr inbounds %struct.pdf_struct, ptr %241, i32 0, i32 8
  %243 = load ptr, ptr %242, align 8
  %244 = ptrtoint ptr %240 to i64
  %245 = ptrtoint ptr %243 to i64
  %246 = sub i64 %244, %245
  %247 = load i64, ptr %10, align 8
  %248 = add i64 %246, %247
  %249 = add i64 %248, 5
  %250 = load ptr, ptr %6, align 8
  %251 = getelementptr inbounds %struct.pdf_struct, ptr %250, i32 0, i32 9
  %252 = load i64, ptr %251, align 8
  %253 = icmp ugt i64 %249, %252
  br i1 %253, label %254, label %267

254:                                              ; preds = %239
  %255 = load ptr, ptr %6, align 8
  %256 = getelementptr inbounds %struct.pdf_struct, ptr %255, i32 0, i32 9
  %257 = load i64, ptr %256, align 8
  %258 = load ptr, ptr %11, align 8
  %259 = load ptr, ptr %6, align 8
  %260 = getelementptr inbounds %struct.pdf_struct, ptr %259, i32 0, i32 8
  %261 = load ptr, ptr %260, align 8
  %262 = ptrtoint ptr %258 to i64
  %263 = ptrtoint ptr %261 to i64
  %264 = sub i64 %262, %263
  %265 = sub i64 %257, %264
  %266 = sub i64 %265, 5
  store i64 %266, ptr %10, align 8
  br label %267

267:                                              ; preds = %254, %239
  %268 = load i64, ptr %10, align 8
  store i64 %268, ptr %5, align 8
  br label %269

269:                                              ; preds = %267, %233, %229, %216, %207, %184, %156, %126, %122, %78, %74, %60, %51, %40, %29, %22
  %270 = load i64, ptr %5, align 8
  ret i64 %270
}