; Function Attrs: nounwind uwtable
define internal fastcc i64 @find_length(ptr nocapture noundef readonly %0, ptr noundef readonly %1, ptr noundef %2, i64 noundef %3) unnamed_addr #0 {
  %5 = alloca i64, align 8
  store i64 0, ptr %5, align 8
  %6 = icmp ult i64 %3, 8
  br i1 %6, label %.critedge2.thread, label %7

7:                                                ; preds = %4
  %8 = tail call ptr @cli_memstr(ptr noundef %2, i64 noundef %3, ptr noundef nonnull @.str.80, i64 noundef 7) #22
  %.not = icmp eq ptr %8, null
  br i1 %.not, label %.critedge2.thread, label %9

9:                                                ; preds = %7
  %10 = ptrtoint ptr %8 to i64
  %11 = ptrtoint ptr %2 to i64
  %.neg = sub i64 %11, %10
  %12 = add i64 %.neg, %3
  %13 = icmp eq i64 %12, 0
  br i1 %13, label %.critedge2.thread, label %14

14:                                               ; preds = %9
  %15 = getelementptr inbounds i8, ptr %8, i64 1
  %16 = add i64 %12, -1
  %17 = tail call fastcc ptr @pdf_nextobject(ptr noundef nonnull %15, i64 noundef %16)
  %.not96 = icmp eq ptr %17, null
  br i1 %.not96, label %.critedge2.thread, label %18

18:                                               ; preds = %14
  %19 = ptrtoint ptr %17 to i64
  %20 = ptrtoint ptr %15 to i64
  %21 = sub i64 %19, %20
  %22 = icmp ult i64 %16, %21
  br i1 %22, label %.critedge2.thread, label %23

23:                                               ; preds = %18
  %24 = sub i64 %16, %21
  %25 = call i32 @cli_strntol_wrap(ptr noundef nonnull %17, i64 noundef %24, i32 noundef 0, i32 noundef 10, ptr noundef nonnull %5) #22
  %.not97 = icmp eq i32 %25, 0
  br i1 %.not97, label %27, label %26

26:                                               ; preds = %23
  call void (ptr, ...) @cli_dbgmsg(ptr noundef nonnull @.str.203) #22
  br label %.critedge2.thread

27:                                               ; preds = %23
  %28 = load i64, ptr %5, align 8
  %29 = icmp slt i64 %28, 0
  br i1 %29, label %32, label %.preheader108

.preheader108:                                    ; preds = %27
  %.not98114 = icmp eq i64 %24, 0
  br i1 %.not98114, label %.critedge106, label %.lr.ph

.lr.ph:                                           ; preds = %.preheader108
  %30 = tail call ptr @__ctype_b_loc() #24
  %31 = load ptr, ptr %30, align 8
  br label %33

32:                                               ; preds = %27
  call void (ptr, ...) @cli_dbgmsg(ptr noundef nonnull @.str.204, i64 noundef %28) #22
  br label %.critedge2.thread

33:                                               ; preds = %.lr.ph, %39
  %.074116 = phi ptr [ %17, %.lr.ph ], [ %40, %39 ]
  %.075115 = phi i64 [ %24, %.lr.ph ], [ %41, %39 ]
  %34 = load i8, ptr %.074116, align 1
  %35 = sext i8 %34 to i64
  %36 = getelementptr inbounds i16, ptr %31, i64 %35
  %37 = load i16, ptr %36, align 2
  %38 = and i16 %37, 2048
  %.not99 = icmp eq i16 %38, 0
  br i1 %.not99, label %.critedge, label %39

39:                                               ; preds = %33
  %40 = getelementptr inbounds i8, ptr %.074116, i64 1
  %41 = add i64 %.075115, -1
  %.not98 = icmp eq i64 %41, 0
  br i1 %.not98, label %.critedge106, label %33

.critedge:                                        ; preds = %33
  %42 = icmp eq i8 %34, 32
  br i1 %42, label %43, label %.critedge106

43:                                               ; preds = %.critedge
  %44 = getelementptr inbounds i8, ptr %.074116, i64 1
  %45 = add i64 %.075115, -1
  %46 = call i32 @cli_strntol_wrap(ptr noundef nonnull %44, i64 noundef %45, i32 noundef 0, i32 noundef 10, ptr noundef nonnull %5) #22
  %.not100 = icmp eq i32 %46, 0
  br i1 %.not100, label %48, label %47

47:                                               ; preds = %43
  call void (ptr, ...) @cli_dbgmsg(ptr noundef nonnull @.str.205) #22
  br label %.critedge2.thread

48:                                               ; preds = %43
  %49 = load i64, ptr %5, align 8
  %50 = icmp slt i64 %49, 0
  br i1 %50, label %52, label %.preheader

.preheader:                                       ; preds = %48
  %.not101117 = icmp eq i64 %45, 0
  br i1 %.not101117, label %.critedge2.thread, label %.lr.ph120

.lr.ph120:                                        ; preds = %.preheader
  %51 = load ptr, ptr %30, align 8
  br label %53

52:                                               ; preds = %48
  call void (ptr, ...) @cli_dbgmsg(ptr noundef nonnull @.str.206, i64 noundef %49) #22
  br label %.critedge2.thread

53:                                               ; preds = %.lr.ph120, %59
  %.1119 = phi ptr [ %44, %.lr.ph120 ], [ %60, %59 ]
  %.176118 = phi i64 [ %45, %.lr.ph120 ], [ %61, %59 ]
  %54 = load i8, ptr %.1119, align 1
  %55 = sext i8 %54 to i64
  %56 = getelementptr inbounds i16, ptr %51, i64 %55
  %57 = load i16, ptr %56, align 2
  %58 = and i16 %57, 2048
  %.not102 = icmp eq i16 %58, 0
  br i1 %.not102, label %.critedge2, label %59

59:                                               ; preds = %53
  %60 = getelementptr inbounds i8, ptr %.1119, i64 1
  %61 = add i64 %.176118, -1
  %.not101 = icmp eq i64 %61, 0
  br i1 %.not101, label %.critedge2.thread, label %53

.critedge2:                                       ; preds = %53
  %62 = icmp eq i64 %.176118, 1
  br i1 %62, label %.critedge2.thread, label %63

63:                                               ; preds = %.critedge2
  %64 = icmp eq i8 %54, 32
  br i1 %64, label %65, label %.critedge106

65:                                               ; preds = %63
  %66 = getelementptr inbounds i8, ptr %.1119, i64 1
  %67 = load i8, ptr %66, align 1
  %68 = icmp eq i8 %67, 82
  br i1 %68, label %69, label %.critedge106

69:                                               ; preds = %65
  call void (ptr, ...) @cli_dbgmsg(ptr noundef nonnull @.str.207, i64 noundef %28, i64 noundef %49) #22
  %70 = shl i64 %28, 8
  %71 = and i64 %49, 255
  %72 = or disjoint i64 %71, %70
  %73 = trunc i64 %72 to i32
  %74 = call ptr @find_obj(ptr noundef %0, ptr noundef %1, i32 noundef %73)
  %.not103 = icmp eq ptr %74, null
  br i1 %.not103, label %75, label %76

75:                                               ; preds = %69
  call void (ptr, ...) @cli_dbgmsg(ptr noundef nonnull @.str.208) #22
  br label %.critedge2.thread

76:                                               ; preds = %69
  %77 = getelementptr inbounds i8, ptr %0, i64 48
  %78 = load ptr, ptr %77, align 8
  %79 = load i32, ptr %74, align 8
  %80 = zext i32 %79 to i64
  %81 = getelementptr inbounds i8, ptr %78, i64 %80
  %82 = getelementptr inbounds i8, ptr %0, i64 56
  %83 = load i64, ptr %82, align 8
  %84 = sub i64 %83, %80
  %85 = call fastcc ptr @pdf_nextobject(ptr noundef %81, i64 noundef %84)
  %.not104 = icmp eq ptr %85, null
  br i1 %.not104, label %86, label %87

86:                                               ; preds = %76
  call void (ptr, ...) @cli_dbgmsg(ptr noundef nonnull @.str.209) #22
  br label %.critedge2.thread

87:                                               ; preds = %76
  %88 = ptrtoint ptr %85 to i64
  %89 = ptrtoint ptr %81 to i64
  %90 = sub i64 %88, %89
  %91 = icmp ult i64 %84, %90
  br i1 %91, label %.critedge2.thread, label %92

92:                                               ; preds = %87
  %93 = sub i64 %84, %90
  %94 = call i32 @cli_strntol_wrap(ptr noundef nonnull %85, i64 noundef %93, i32 noundef 0, i32 noundef 10, ptr noundef nonnull %5) #22
  %.not105 = icmp eq i32 %94, 0
  br i1 %.not105, label %96, label %95

95:                                               ; preds = %92
  call void (ptr, ...) @cli_dbgmsg(ptr noundef nonnull @.str.210) #22
  br label %.critedge2.thread

96:                                               ; preds = %92
  %97 = load i64, ptr %5, align 8
  %98 = icmp slt i64 %97, 0
  br i1 %98, label %99, label %.critedge106

99:                                               ; preds = %96
  call void (ptr, ...) @cli_dbgmsg(ptr noundef nonnull @.str.211, i64 noundef %97) #22
  br label %.critedge2.thread

.critedge106:                                     ; preds = %39, %.preheader108, %96, %63, %65, %.critedge
  %.077 = phi i64 [ %28, %65 ], [ %28, %63 ], [ %28, %.critedge ], [ %97, %96 ], [ %28, %.preheader108 ], [ %28, %39 ]
  %100 = getelementptr inbounds i8, ptr %0, i64 48
  %101 = load ptr, ptr %100, align 8
  %102 = ptrtoint ptr %101 to i64
  %103 = sub i64 %19, %102
  %104 = add nuw i64 %.077, 5
  %105 = add i64 %104, %103
  %106 = getelementptr inbounds i8, ptr %0, i64 56
  %107 = load i64, ptr %106, align 8
  %108 = icmp ugt i64 %105, %107
  %109 = add i64 %107, -5
  %110 = sub i64 %109, %103
  %.178 = select i1 %108, i64 %110, i64 %.077
  br label %.critedge2.thread

.critedge2.thread:                                ; preds = %59, %.preheader, %87, %.critedge2, %18, %14, %9, %7, %4, %.critedge106, %99, %95, %86, %75, %52, %47, %32, %26
  %.0 = phi i64 [ 0, %26 ], [ 0, %32 ], [ 0, %47 ], [ 0, %52 ], [ 0, %95 ], [ 0, %99 ], [ %.178, %.critedge106 ], [ 0, %86 ], [ 0, %75 ], [ 0, %4 ], [ 0, %7 ], [ 0, %9 ], [ 0, %14 ], [ 0, %18 ], [ 0, %.critedge2 ], [ 0, %87 ], [ 0, %.preheader ], [ 0, %59 ]
  ret i64 %.0
}